target datalayout = "e-m:e-p270:32:32-p271:32:32-p272:64:64-i64:64-i128:128-f80:128-n8:16:32:64-S128"
target triple = "x86_64-pc-linux-gnu"

; Function Attrs: nounwind uwtable
define internal void @blur_line(ptr noundef %0, i32 noundef %1, i32 noundef %2, i32 noundef %3, i32 noundef %4, i32 noundef %5, i32 noundef %6) #0 {
  %8 = alloca ptr, align 8
  %9 = alloca i32, align 4
  %10 = alloca i32, align 4
  %11 = alloca i32, align 4
  %12 = alloca i32, align 4
  %13 = alloca i32, align 4
  %14 = alloca i32, align 4
  %15 = alloca float, align 4
  %16 = alloca float, align 4
  %17 = alloca float, align 4
  %18 = alloca i32, align 4
  %19 = alloca i32, align 4
  %20 = alloca i64, align 8
  %21 = alloca i32, align 4
  %22 = alloca float, align 4
  %23 = alloca float, align 4
  %24 = alloca i32, align 4
  %25 = alloca float, align 4
  %26 = alloca float, align 4
  store ptr %0, ptr %8, align 8, !tbaa !69
  store i32 %1, ptr %9, align 4, !tbaa !11
  store i32 %2, ptr %10, align 4, !tbaa !11
  store i32 %3, ptr %11, align 4, !tbaa !11
  store i32 %4, ptr %12, align 4, !tbaa !11
  store i32 %5, ptr %13, align 4, !tbaa !11
  store i32 %6, ptr %14, align 4, !tbaa !11
  call void @llvm.lifetime.start.p0(i64 4, ptr %15) #9
  store float 3.750000e-01, ptr %15, align 4, !tbaa !13
  call void @llvm.lifetime.start.p0(i64 4, ptr %16) #9
  store float 2.500000e-01, ptr %16, align 4, !tbaa !13
  call void @llvm.lifetime.start.p0(i64 4, ptr %17) #9
  store float 6.250000e-02, ptr %17, align 4, !tbaa !13
  call void @llvm.lifetime.start.p0(i64 4, ptr %18) #9
  store i32 0, ptr %18, align 4, !tbaa !11
  br label %27

27:                                               ; preds = %228, %7
  %28 = load i32, ptr %18, align 4, !tbaa !11
  %29 = load i32, ptr %12, align 4, !tbaa !11
  %30 = icmp slt i32 %28, %29
  br i1 %30, label %32, label %31

31:                                               ; preds = %27
  store i32 2, ptr %19, align 4
  call void @llvm.lifetime.end.p0(i64 4, ptr %18) #9
  br label %231

32:                                               ; preds = %27
  call void @llvm.lifetime.start.p0(i64 8, ptr %20) #9
  %33 = load i32, ptr %18, align 4, !tbaa !11
  %34 = sext i32 %33 to i64
  %35 = load i32, ptr %9, align 4, !tbaa !11
  %36 = sext i32 %35 to i64
  %37 = mul i64 %34, %36
  store i64 %37, ptr %20, align 8, !tbaa !25
  call void @llvm.lifetime.start.p0(i64 4, ptr %21) #9
  store i32 0, ptr %21, align 4, !tbaa !11
  br label %38

38:                                               ; preds = %224, %32
  %39 = load i32, ptr %21, align 4, !tbaa !11
  %40 = load i32, ptr %13, align 4, !tbaa !11
  %41 = icmp slt i32 %39, %40
  br i1 %41, label %43, label %42

42:                                               ; preds = %38
  store i32 5, ptr %19, align 4
  call void @llvm.lifetime.end.p0(i64 4, ptr %21) #9
  br label %227

43:                                               ; preds = %38
  call void @llvm.lifetime.start.p0(i64 4, ptr %22) #9
  %44 = load ptr, ptr %8, align 8, !tbaa !69
  %45 = load i64, ptr %20, align 8, !tbaa !25
  %46 = getelementptr inbounds nuw float, ptr %44, i64 %45
  %47 = load float, ptr %46, align 4, !tbaa !13
  store float %47, ptr %22, align 4, !tbaa !13
  %48 = load ptr, ptr %8, align 8, !tbaa !69
  %49 = load i64, ptr %20, align 8, !tbaa !25
  %50 = getelementptr inbounds nuw float, ptr %48, i64 %49
  %51 = load float, ptr %50, align 4, !tbaa !13
  %52 = fmul reassoc nsz arcp contract afn float %51, 3.750000e-01
  %53 = load ptr, ptr %8, align 8, !tbaa !69
  %54 = load i64, ptr %20, align 8, !tbaa !25
  %55 = load i32, ptr %11, align 4, !tbaa !11
  %56 = sext i32 %55 to i64
  %57 = add i64 %54, %56
  %58 = getelementptr inbounds nuw float, ptr %53, i64 %57
  %59 = load float, ptr %58, align 4, !tbaa !13
  %60 = fmul reassoc nsz arcp contract afn float 2.500000e-01, %59
  %61 = fadd reassoc nsz arcp contract afn float %52, %60
  %62 = load ptr, ptr %8, align 8, !tbaa !69
  %63 = load i64, ptr %20, align 8, !tbaa !25
  %64 = load i32, ptr %11, align 4, !tbaa !11
  %65 = mul nsw i32 2, %64
  %66 = sext i32 %65 to i64
  %67 = add i64 %63, %66
  %68 = getelementptr inbounds nuw float, ptr %62, i64 %67
  %69 = load float, ptr %68, align 4, !tbaa !13
  %70 = fmul reassoc nsz arcp contract afn float 6.250000e-02, %69
  %71 = fadd reassoc nsz arcp contract afn float %61, %70
  %72 = load ptr, ptr %8, align 8, !tbaa !69
  %73 = load i64, ptr %20, align 8, !tbaa !25
  %74 = getelementptr inbounds nuw float, ptr %72, i64 %73
  store float %71, ptr %74, align 4, !tbaa !13
  %75 = load i32, ptr %11, align 4, !tbaa !11
  %76 = sext i32 %75 to i64
  %77 = load i64, ptr %20, align 8, !tbaa !25
  %78 = add i64 %77, %76
  store i64 %78, ptr %20, align 8, !tbaa !25
  call void @llvm.lifetime.start.p0(i64 4, ptr %23) #9
  %79 = load ptr, ptr %8, align 8, !tbaa !69
  %80 = load i64, ptr %20, align 8, !tbaa !25
  %81 = getelementptr inbounds nuw float, ptr %79, i64 %80
  %82 = load float, ptr %81, align 4, !tbaa !13
  store float %82, ptr %23, align 4, !tbaa !13
  %83 = load ptr, ptr %8, align 8, !tbaa !69
  %84 = load i64, ptr %20, align 8, !tbaa !25
  %85 = getelementptr inbounds nuw float, ptr %83, i64 %84
  %86 = load float, ptr %85, align 4, !tbaa !13
  %87 = fmul reassoc nsz arcp contract afn float %86, 3.750000e-01
  %88 = load ptr, ptr %8, align 8, !tbaa !69
  %89 = load i64, ptr %20, align 8, !tbaa !25
  %90 = load i32, ptr %11, align 4, !tbaa !11
  %91 = sext i32 %90 to i64
  %92 = add i64 %89, %91
  %93 = getelementptr inbounds nuw float, ptr %88, i64 %92
  %94 = load float, ptr %93, align 4, !tbaa !13
  %95 = load float, ptr %22, align 4, !tbaa !13
  %96 = fadd reassoc nsz arcp contract afn float %94, %95
  %97 = fmul reassoc nsz arcp contract afn float 2.500000e-01, %96
  %98 = fadd reassoc nsz arcp contract afn float %87, %97
  %99 = load ptr, ptr %8, align 8, !tbaa !69
  %100 = load i64, ptr %20, align 8, !tbaa !25
  %101 = load i32, ptr %11, align 4, !tbaa !11
  %102 = mul nsw i32 2, %101
  %103 = sext i32 %102 to i64
  %104 = add i64 %100, %103
  %105 = getelementptr inbounds nuw float, ptr %99, i64 %104
  %106 = load float, ptr %105, align 4, !tbaa !13
  %107 = fmul reassoc nsz arcp contract afn float 6.250000e-02, %106
  %108 = fadd reassoc nsz arcp contract afn float %98, %107
  %109 = load ptr, ptr %8, align 8, !tbaa !69
  %110 = load i64, ptr %20, align 8, !tbaa !25
  %111 = getelementptr inbounds nuw float, ptr %109, i64 %110
  store float %108, ptr %111, align 4, !tbaa !13
  %112 = load i32, ptr %11, align 4, !tbaa !11
  %113 = sext i32 %112 to i64
  %114 = load i64, ptr %20, align 8, !tbaa !25
  %115 = add i64 %114, %113
  store i64 %115, ptr %20, align 8, !tbaa !25
  call void @llvm.lifetime.start.p0(i64 4, ptr %24) #9
  store i32 2, ptr %24, align 4, !tbaa !11
  br label %116

116:                                              ; preds = %164, %43
  %117 = load i32, ptr %24, align 4, !tbaa !11
  %118 = load i32, ptr %14, align 4, !tbaa !11
  %119 = sub nsw i32 %118, 2
  %120 = icmp slt i32 %117, %119
  br i1 %120, label %122, label %121

121:                                              ; preds = %116
  store i32 8, ptr %19, align 4
  call void @llvm.lifetime.end.p0(i64 4, ptr %24) #9
  br label %167

122:                                              ; preds = %116
  call void @llvm.lifetime.start.p0(i64 4, ptr %25) #9
  %123 = load ptr, ptr %8, align 8, !tbaa !69
  %124 = load i64, ptr %20, align 8, !tbaa !25
  %125 = getelementptr inbounds nuw float, ptr %123, i64 %124
  %126 = load float, ptr %125, align 4, !tbaa !13
  store float %126, ptr %25, align 4, !tbaa !13
  %127 = load ptr, ptr %8, align 8, !tbaa !69
  %128 = load i64, ptr %20, align 8, !tbaa !25
  %129 = getelementptr inbounds nuw float, ptr %127, i64 %128
  %130 = load float, ptr %129, align 4, !tbaa !13
  %131 = fmul reassoc nsz arcp contract afn float %130, 3.750000e-01
  %132 = load ptr, ptr %8, align 8, !tbaa !69
  %133 = load i64, ptr %20, align 8, !tbaa !25
  %134 = load i32, ptr %11, align 4, !tbaa !11
  %135 = sext i32 %134 to i64
  %136 = add i64 %133, %135
  %137 = getelementptr inbounds nuw float, ptr %132, i64 %136
  %138 = load float, ptr %137, align 4, !tbaa !13
  %139 = load float, ptr %23, align 4, !tbaa !13
  %140 = fadd reassoc nsz arcp contract afn float %138, %139
  %141 = fmul reassoc nsz arcp contract afn float 2.500000e-01, %140
  %142 = fadd reassoc nsz arcp contract afn float %131, %141
  %143 = load ptr, ptr %8, align 8, !tbaa !69
  %144 = load i64, ptr %20, align 8, !tbaa !25
  %145 = load i32, ptr %11, align 4, !tbaa !11
  %146 = mul nsw i32 2, %145
  %147 = sext i32 %146 to i64
  %148 = add i64 %144, %147
  %149 = getelementptr inbounds nuw float, ptr %143, i64 %148
  %150 = load float, ptr %149, align 4, !tbaa !13
  %151 = load float, ptr %22, align 4, !tbaa !13
  %152 = fadd reassoc nsz arcp contract afn float %150, %151
  %153 = fmul reassoc nsz arcp contract afn float 6.250000e-02, %152
  %154 = fadd reassoc nsz arcp contract afn float %142, %153
  %155 = load ptr, ptr %8, align 8, !tbaa !69
  %156 = load i64, ptr %20, align 8, !tbaa !25
  %157 = getelementptr inbounds nuw float, ptr %155, i64 %156
  store float %154, ptr %157, align 4, !tbaa !13
  %158 = load i32, ptr %11, align 4, !tbaa !11
  %159 = sext i32 %158 to i64
  %160 = load i64, ptr %20, align 8, !tbaa !25
  %161 = add i64 %160, %159
  store i64 %161, ptr %20, align 8, !tbaa !25
  %162 = load float, ptr %23, align 4, !tbaa !13
  store float %162, ptr %22, align 4, !tbaa !13
  %163 = load float, ptr %25, align 4, !tbaa !13
  store float %163, ptr %23, align 4, !tbaa !13
  call void @llvm.lifetime.end.p0(i64 4, ptr %25) #9
  br label %164

164:                                              ; preds = %122
  %165 = load i32, ptr %24, align 4, !tbaa !11
  %166 = add nsw i32 %165, 1
  store i32 %166, ptr %24, align 4, !tbaa !11
  br label %116

167:                                              ; preds = %121
  call void @llvm.lifetime.start.p0(i64 4, ptr %26) #9
  %168 = load ptr, ptr %8, align 8, !tbaa !69
  %169 = load i64, ptr %20, align 8, !tbaa !25
  %170 = getelementptr inbounds nuw float, ptr %168, i64 %169
  %171 = load float, ptr %170, align 4, !tbaa !13
  store float %171, ptr %26, align 4, !tbaa !13
  %172 = load ptr, ptr %8, align 8, !tbaa !69
  %173 = load i64, ptr %20, align 8, !tbaa !25
  %174 = getelementptr inbounds nuw float, ptr %172, i64 %173
  %175 = load float, ptr %174, align 4, !tbaa !13
  %176 = fmul reassoc nsz arcp contract afn float %175, 3.750000e-01
  %177 = load ptr, ptr %8, align 8, !tbaa !69
  %178 = load i64, ptr %20, align 8, !tbaa !25
  %179 = load i32, ptr %11, align 4, !tbaa !11
  %180 = sext i32 %179 to i64
  %181 = add i64 %178, %180
  %182 = getelementptr inbounds nuw float, ptr %177, i64 %181
  %183 = load float, ptr %182, align 4, !tbaa !13
  %184 = load float, ptr %23, align 4, !tbaa !13
  %185 = fadd reassoc nsz arcp contract afn float %183, %184
  %186 = fmul reassoc nsz arcp contract afn float 2.500000e-01, %185
  %187 = fadd reassoc nsz arcp contract afn float %176, %186
  %188 = load float, ptr %22, align 4, !tbaa !13
  %189 = fmul reassoc nsz arcp contract afn float 6.250000e-02, %188
  %190 = fadd reassoc nsz arcp contract afn float %187, %189
  %191 = load ptr, ptr %8, align 8, !tbaa !69
  %192 = load i64, ptr %20, align 8, !tbaa !25
  %193 = getelementptr inbounds nuw float, ptr %191, i64 %192
  store float %190, ptr %193, align 4, !tbaa !13
  %194 = load i32, ptr %11, align 4, !tbaa !11
  %195 = sext i32 %194 to i64
  %196 = load i64, ptr %20, align 8, !tbaa !25
  %197 = add i64 %196, %195
  store i64 %197, ptr %20, align 8, !tbaa !25
  %198 = load ptr, ptr %8, align 8, !tbaa !69
  %199 = load i64, ptr %20, align 8, !tbaa !25
  %200 = getelementptr inbounds nuw float, ptr %198, i64 %199
  %201 = load float, ptr %200, align 4, !tbaa !13
  %202 = fmul reassoc nsz arcp contract afn float %201, 3.750000e-01
  %203 = load float, ptr %26, align 4, !tbaa !13
  %204 = fmul reassoc nsz arcp contract afn float 2.500000e-01, %203
  %205 = fadd reassoc nsz arcp contract afn float %202, %204
  %206 = load float, ptr %23, align 4, !tbaa !13
  %207 = fmul reassoc nsz arcp contract afn float 6.250000e-02, %206
  %208 = fadd reassoc nsz arcp contract afn float %205, %207
  %209 = load ptr, ptr %8, align 8, !tbaa !69
  %210 = load i64, ptr %20, align 8, !tbaa !25
  %211 = getelementptr inbounds nuw float, ptr %209, i64 %210
  store float %208, ptr %211, align 4, !tbaa !13
  %212 = load i32, ptr %11, align 4, !tbaa !11
  %213 = sext i32 %212 to i64
  %214 = load i64, ptr %20, align 8, !tbaa !25
  %215 = add i64 %214, %213
  store i64 %215, ptr %20, align 8, !tbaa !25
  %216 = load i32, ptr %10, align 4, !tbaa !11
  %217 = load i32, ptr %11, align 4, !tbaa !11
  %218 = load i32, ptr %14, align 4, !tbaa !11
  %219 = mul nsw i32 %217, %218
  %220 = sub nsw i32 %216, %219
  %221 = sext i32 %220 to i64
  %222 = load i64, ptr %20, align 8, !tbaa !25
  %223 = add i64 %222, %221
  store i64 %223, ptr %20, align 8, !tbaa !25
  call void @llvm.lifetime.end.p0(i64 4, ptr %26) #9
  call void @llvm.lifetime.end.p0(i64 4, ptr %23) #9
  call void @llvm.lifetime.end.p0(i64 4, ptr %22) #9
  br label %224

224:                                              ; preds = %167
  %225 = load i32, ptr %21, align 4, !tbaa !11
  %226 = add nsw i32 %225, 1
  store i32 %226, ptr %21, align 4, !tbaa !11
  br label %38

227:                                              ; preds = %42
  call void @llvm.lifetime.end.p0(i64 8, ptr %20) #9
  br label %228

228:                                              ; preds = %227
  %229 = load i32, ptr %18, align 4, !tbaa !11
  %230 = add nsw i32 %229, 1
  store i32 %230, ptr %18, align 4, !tbaa !11
  br label %27

231:                                              ; preds = %31
  call void @llvm.lifetime.end.p0(i64 4, ptr %17) #9
  call void @llvm.lifetime.end.p0(i64 4, ptr %16) #9
  call void @llvm.lifetime.end.p0(i64 4, ptr %15) #9
  ret void
}