; Function Attrs: nofree norecurse nosync nounwind memory(argmem: readwrite) uwtable
define internal fastcc void @blur_line(ptr noundef captures(none) %0, i32 noundef %1, i32 noundef %2, i32 noundef %3, i32 noundef %4, i32 noundef %5) unnamed_addr #10 {
  %7 = icmp sgt i32 %3, 0
  br i1 %7, label %.lr.ph, label %._crit_edge

.lr.ph:                                           ; preds = %6
  %8 = icmp sgt i32 %4, 0
  %9 = sext i32 %2 to i64
  %10 = shl nsw i32 %2, 1
  %11 = sext i32 %10 to i64
  %invariant.op = shl nsw i64 %9, 1
  %12 = mul nsw i32 %5, %2
  %13 = sub nsw i32 %1, %12
  %14 = sext i32 %13 to i64
  %invariant.op98 = add nsw i64 %invariant.op, %14
  br i1 %8, label %.lr.ph.split.us, label %._crit_edge

.lr.ph.split.us:                                  ; preds = %.lr.ph
  %15 = icmp sgt i32 %5, 4
  %wide.trip.count117 = zext nneg i32 %3 to i64
  br i1 %15, label %.lr.ph96.us.us.preheader, label %.lr.ph96.us.preheader

.lr.ph96.us.preheader:                            ; preds = %.lr.ph.split.us
  %invariant.op122 = add nsw i64 %invariant.op, %invariant.op98
  %invariant.gep = getelementptr float, ptr %0, i64 %invariant.op
  br label %.lr.ph96.us

.lr.ph96.us.us.preheader:                         ; preds = %.lr.ph.split.us
  %16 = add nsw i32 %5, -3
  br label %.lr.ph96.us.us

.lr.ph96.us.us:                                   ; preds = %.lr.ph96.us.us.preheader, %._crit_edge97.split.us.us.us
  %indvars.iv114 = phi i64 [ 0, %.lr.ph96.us.us.preheader ], [ %indvars.iv.next115, %._crit_edge97.split.us.us.us ]
  br label %.lr.ph.us.us.us

.lr.ph.us.us.us:                                  ; preds = %._crit_edge.us.us.us, %.lr.ph96.us.us
  %.08594.us.us.us = phi i32 [ 0, %.lr.ph96.us.us ], [ %71, %._crit_edge.us.us.us ]
  %.08693.us.us.us = phi i64 [ %indvars.iv114, %.lr.ph96.us.us ], [ %.reass99.us.us.us, %._crit_edge.us.us.us ]
  %17 = getelementptr float, ptr %0, i64 %.08693.us.us.us
  %18 = load float, ptr %17, align 4, !tbaa !65
  %19 = fmul reassoc nsz arcp contract afn float %18, 3.750000e-01
  %20 = getelementptr float, ptr %17, i64 %9
  %21 = load float, ptr %20, align 4, !tbaa !65
  %22 = fmul reassoc nsz arcp contract afn float %21, 2.500000e-01
  %23 = fadd reassoc nsz arcp contract afn float %22, %19
  %24 = getelementptr float, ptr %17, i64 %11
  %25 = load float, ptr %24, align 4, !tbaa !65
  %26 = fmul reassoc nsz arcp contract afn float %25, 6.250000e-02
  %27 = fadd reassoc nsz arcp contract afn float %23, %26
  store float %27, ptr %17, align 4, !tbaa !65
  %28 = load float, ptr %20, align 4, !tbaa !65
  %29 = fmul reassoc nsz arcp contract afn float %28, 3.750000e-01
  %.reass.us.us.us = add i64 %.08693.us.us.us, %invariant.op
  %30 = getelementptr inbounds nuw float, ptr %0, i64 %.reass.us.us.us
  %31 = load float, ptr %30, align 4, !tbaa !65
  %32 = fadd reassoc nsz arcp contract afn float %31, %18
  %33 = fmul reassoc nsz arcp contract afn float %32, 2.500000e-01
  %34 = fadd reassoc nsz arcp contract afn float %33, %29
  %35 = getelementptr float, ptr %20, i64 %11
  %36 = load float, ptr %35, align 4, !tbaa !65
  %37 = fmul reassoc nsz arcp contract afn float %36, 6.250000e-02
  %38 = fadd reassoc nsz arcp contract afn float %34, %37
  store float %38, ptr %20, align 4, !tbaa !65
  br label %39

39:                                               ; preds = %39, %.lr.ph.us.us.us
  %.08290.us.us.us = phi i32 [ 2, %.lr.ph.us.us.us ], [ %54, %39 ]
  %.08389.us.us.us = phi float [ %28, %.lr.ph.us.us.us ], [ %41, %39 ]
  %.08488.us.us.us = phi float [ %18, %.lr.ph.us.us.us ], [ %.08389.us.us.us, %39 ]
  %.187.us.us.us = phi i64 [ %.reass.us.us.us, %.lr.ph.us.us.us ], [ %43, %39 ]
  %40 = getelementptr inbounds nuw float, ptr %0, i64 %.187.us.us.us
  %41 = load float, ptr %40, align 4, !tbaa !65
  %42 = fmul reassoc nsz arcp contract afn float %41, 3.750000e-01
  %43 = add i64 %.187.us.us.us, %9
  %44 = getelementptr float, ptr %0, i64 %43
  %45 = load float, ptr %44, align 4, !tbaa !65
  %46 = fadd reassoc nsz arcp contract afn float %45, %.08389.us.us.us
  %47 = fmul reassoc nsz arcp contract afn float %46, 2.500000e-01
  %48 = fadd reassoc nsz arcp contract afn float %47, %42
  %49 = getelementptr float, ptr %40, i64 %11
  %50 = load float, ptr %49, align 4, !tbaa !65
  %51 = fadd reassoc nsz arcp contract afn float %50, %.08488.us.us.us
  %52 = fmul reassoc nsz arcp contract afn float %51, 6.250000e-02
  %53 = fadd reassoc nsz arcp contract afn float %48, %52
  store float %53, ptr %40, align 4, !tbaa !65
  %54 = add nuw nsw i32 %.08290.us.us.us, 1
  %exitcond112.not = icmp eq i32 %.08290.us.us.us, %16
  br i1 %exitcond112.not, label %._crit_edge.us.us.us, label %39

._crit_edge.us.us.us:                             ; preds = %39
  %55 = getelementptr float, ptr %0, i64 %43
  %56 = load float, ptr %55, align 4, !tbaa !65
  %57 = fmul reassoc nsz arcp contract afn float %56, 3.750000e-01
  %58 = getelementptr float, ptr %55, i64 %9
  %59 = load float, ptr %58, align 4, !tbaa !65
  %60 = fadd reassoc nsz arcp contract afn float %59, %41
  %61 = fmul reassoc nsz arcp contract afn float %60, 2.500000e-01
  %62 = fmul reassoc nsz arcp contract afn float %.08389.us.us.us, 6.250000e-02
  %63 = fadd reassoc nsz arcp contract afn float %57, %62
  %64 = fadd reassoc nsz arcp contract afn float %63, %61
  store float %64, ptr %55, align 4, !tbaa !65
  %65 = load float, ptr %58, align 4, !tbaa !65
  %66 = fmul reassoc nsz arcp contract afn float %65, 3.750000e-01
  %67 = fmul reassoc nsz arcp contract afn float %56, 2.500000e-01
  %68 = fmul reassoc nsz arcp contract afn float %41, 6.250000e-02
  %69 = fadd reassoc nsz arcp contract afn float %67, %68
  %70 = fadd reassoc nsz arcp contract afn float %69, %66
  store float %70, ptr %58, align 4, !tbaa !65
  %.reass99.us.us.us = add i64 %43, %invariant.op98
  %71 = add nuw nsw i32 %.08594.us.us.us, 1
  %exitcond113.not = icmp eq i32 %71, %4
  br i1 %exitcond113.not, label %._crit_edge97.split.us.us.us, label %.lr.ph.us.us.us

._crit_edge97.split.us.us.us:                     ; preds = %._crit_edge.us.us.us
  %indvars.iv.next115 = add nuw nsw i64 %indvars.iv114, 1
  %exitcond118.not = icmp eq i64 %indvars.iv.next115, %wide.trip.count117
  br i1 %exitcond118.not, label %._crit_edge, label %.lr.ph96.us.us

.lr.ph96.us:                                      ; preds = %.lr.ph96.us.preheader, %._crit_edge97.split.us105
  %indvars.iv = phi i64 [ 0, %.lr.ph96.us.preheader ], [ %indvars.iv.next, %._crit_edge97.split.us105 ]
  br label %72

72:                                               ; preds = %.lr.ph96.us, %72
  %.08594.us101 = phi i32 [ 0, %.lr.ph96.us ], [ %109, %72 ]
  %.08693.us102 = phi i64 [ %indvars.iv, %.lr.ph96.us ], [ %.reass99.us104.reass, %72 ]
  %73 = getelementptr float, ptr %0, i64 %.08693.us102
  %74 = load float, ptr %73, align 4, !tbaa !65
  %75 = fmul reassoc nsz arcp contract afn float %74, 3.750000e-01
  %76 = getelementptr float, ptr %73, i64 %9
  %77 = load float, ptr %76, align 4, !tbaa !65
  %78 = fmul reassoc nsz arcp contract afn float %77, 2.500000e-01
  %79 = fadd reassoc nsz arcp contract afn float %78, %75
  %80 = getelementptr float, ptr %73, i64 %11
  %81 = load float, ptr %80, align 4, !tbaa !65
  %82 = fmul reassoc nsz arcp contract afn float %81, 6.250000e-02
  %83 = fadd reassoc nsz arcp contract afn float %79, %82
  store float %83, ptr %73, align 4, !tbaa !65
  %84 = load float, ptr %76, align 4, !tbaa !65
  %85 = fmul reassoc nsz arcp contract afn float %84, 3.750000e-01
  %gep = getelementptr float, ptr %invariant.gep, i64 %.08693.us102
  %86 = load float, ptr %gep, align 4, !tbaa !65
  %87 = fadd reassoc nsz arcp contract afn float %86, %74
  %88 = fmul reassoc nsz arcp contract afn float %87, 2.500000e-01
  %89 = fadd reassoc nsz arcp contract afn float %88, %85
  %90 = getelementptr float, ptr %76, i64 %11
  %91 = load float, ptr %90, align 4, !tbaa !65
  %92 = fmul reassoc nsz arcp contract afn float %91, 6.250000e-02
  %93 = fadd reassoc nsz arcp contract afn float %89, %92
  store float %93, ptr %76, align 4, !tbaa !65
  %94 = load float, ptr %gep, align 4, !tbaa !65
  %95 = fmul reassoc nsz arcp contract afn float %94, 3.750000e-01
  %96 = getelementptr float, ptr %gep, i64 %9
  %97 = load float, ptr %96, align 4, !tbaa !65
  %98 = fadd reassoc nsz arcp contract afn float %97, %84
  %99 = fmul reassoc nsz arcp contract afn float %98, 2.500000e-01
  %100 = fmul reassoc nsz arcp contract afn float %74, 6.250000e-02
  %101 = fadd reassoc nsz arcp contract afn float %95, %100
  %102 = fadd reassoc nsz arcp contract afn float %101, %99
  store float %102, ptr %gep, align 4, !tbaa !65
  %103 = load float, ptr %96, align 4, !tbaa !65
  %104 = fmul reassoc nsz arcp contract afn float %103, 3.750000e-01
  %105 = fmul reassoc nsz arcp contract afn float %94, 2.500000e-01
  %106 = fmul reassoc nsz arcp contract afn float %84, 6.250000e-02
  %107 = fadd reassoc nsz arcp contract afn float %105, %106
  %108 = fadd reassoc nsz arcp contract afn float %107, %104
  store float %108, ptr %96, align 4, !tbaa !65
  %.reass99.us104.reass = add i64 %.08693.us102, %invariant.op122
  %109 = add nuw nsw i32 %.08594.us101, 1
  %exitcond.not = icmp eq i32 %109, %4
  br i1 %exitcond.not, label %._crit_edge97.split.us105, label %72

._crit_edge97.split.us105:                        ; preds = %72
  %indvars.iv.next = add nuw nsw i64 %indvars.iv, 1
  %exitcond111.not = icmp eq i64 %indvars.iv.next, %wide.trip.count117
  br i1 %exitcond111.not, label %._crit_edge, label %.lr.ph96.us

._crit_edge:                                      ; preds = %._crit_edge97.split.us105, %._crit_edge97.split.us.us.us, %.lr.ph, %6
  ret void
}